; Function Attrs: mustprogress uwtable
define hidden void @_ZN10model_core13register_declEP9func_declP11func_interp(ptr noundef nonnull align 8 dereferenceable(96) %0, ptr noundef %1, ptr noundef %2) local_unnamed_addr #9 align 2 {
  %4 = tail call noundef ptr @_ZN10model_core18update_func_interpEP9func_declP11func_interp(ptr noundef nonnull align 8 dereferenceable(96) %0, ptr noundef %1, ptr noundef %2)
  %5 = icmp eq ptr %4, null
  br i1 %5, label %_Z7deallocI11func_interpEvPT_.exit, label %6

6:                                                ; preds = %3
  tail call void @_ZN11func_interpD1Ev(ptr noundef nonnull align 8 dereferenceable(56) %4) #22
  tail call void @_ZN6memory10deallocateEPv(ptr noundef nonnull %4)
  br label %_Z7deallocI11func_interpEvPT_.exit

_Z7deallocI11func_interpEvPT_.exit:               ; preds = %3, %6
  ret void
}